target datalayout = "e-m:e-p270:32:32-p271:32:32-p272:64:64-i64:64-i128:128-f80:128-n8:16:32:64-S128"
target triple = "x86_64-pc-linux-gnu"

%struct.Abc_Obj_t_ = type { ptr, ptr, i32, i32, %struct.Vec_Int_t_, %struct.Vec_Int_t_, %union.anon, %union.anon.0 }
%struct.Vec_Int_t_ = type { i32, i32, ptr }
%union.anon = type { ptr }
%union.anon.0 = type { ptr }
%struct.Abc_Ntk_t_ = type { i32, i32, ptr, ptr, ptr, ptr, ptr, ptr, ptr, ptr, ptr, ptr, ptr, [11 x i32], i32, i32, i32, i32, ptr, i32, ptr, ptr, i32, i32, i32, double, i32, %struct.Vec_Int_t_, ptr, ptr, ptr, ptr, ptr, float, i32, ptr, ptr, ptr, ptr, ptr, ptr, ptr, ptr, ptr, ptr, ptr, ptr, ptr, ptr, ptr, ptr, ptr, ptr, ptr, ptr, ptr, ptr }
%struct.Vec_Ptr_t_ = type { i32, i32, ptr }

@.str.9 = private unnamed_addr constant [13 x i8] c"0-1 1\0A11- 1\0A\00", align 1

; Function Attrs: inlinehint nounwind uwtable
define internal void @Abc_ObjSetData(ptr noundef %0, ptr noundef %1) #2 {
  %3 = alloca ptr, align 8
  %4 = alloca ptr, align 8
  store ptr %0, ptr %3, align 8, !tbaa !3
  store ptr %1, ptr %4, align 8, !tbaa !32
  %5 = load ptr, ptr %4, align 8, !tbaa !32
  %6 = load ptr, ptr %3, align 8, !tbaa !3
  %7 = getelementptr inbounds nuw %struct.Abc_Obj_t_, ptr %6, i32 0, i32 6
  store ptr %5, ptr %7, align 8, !tbaa !47
  ret void
}

; Function Attrs: inlinehint nounwind uwtable
define internal ptr @Abc_ObjFanout0(ptr noundef %0) #2 {
  %2 = alloca ptr, align 8
  store ptr %0, ptr %2, align 8, !tbaa !3
  %3 = load ptr, ptr %2, align 8, !tbaa !3
  %4 = getelementptr inbounds nuw %struct.Abc_Obj_t_, ptr %3, i32 0, i32 0
  %5 = load ptr, ptr %4, align 8, !tbaa !8
  %6 = getelementptr inbounds nuw %struct.Abc_Ntk_t_, ptr %5, i32 0, i32 5
  %7 = load ptr, ptr %6, align 8, !tbaa !14
  %8 = getelementptr inbounds nuw %struct.Vec_Ptr_t_, ptr %7, i32 0, i32 2
  %9 = load ptr, ptr %8, align 8, !tbaa !28
  %10 = load ptr, ptr %2, align 8, !tbaa !3
  %11 = getelementptr inbounds nuw %struct.Abc_Obj_t_, ptr %10, i32 0, i32 5
  %12 = getelementptr inbounds nuw %struct.Vec_Int_t_, ptr %11, i32 0, i32 2
  %13 = load ptr, ptr %12, align 8, !tbaa !62
  %14 = getelementptr inbounds i32, ptr %13, i64 0
  %15 = load i32, ptr %14, align 4, !tbaa !31
  %16 = sext i32 %15 to i64
  %17 = getelementptr inbounds ptr, ptr %9, i64 %16
  %18 = load ptr, ptr %17, align 8, !tbaa !32
  ret ptr %18
}

; Function Attrs: inlinehint nounwind uwtable
define internal ptr @Abc_NtkCreateNode(ptr noundef %0) #2 {
  %2 = alloca ptr, align 8
  store ptr %0, ptr %2, align 8, !tbaa !33
  %3 = load ptr, ptr %2, align 8, !tbaa !33
  %4 = call ptr @Abc_NtkCreateObj(ptr noundef %3, i32 noundef 7)
  ret ptr %4
}

; Function Attrs: inlinehint nounwind uwtable
define internal ptr @Abc_ObjFanin0(ptr noundef %0) #2 {
  %2 = alloca ptr, align 8
  store ptr %0, ptr %2, align 8, !tbaa !3
  %3 = load ptr, ptr %2, align 8, !tbaa !3
  %4 = getelementptr inbounds nuw %struct.Abc_Obj_t_, ptr %3, i32 0, i32 0
  %5 = load ptr, ptr %4, align 8, !tbaa !8
  %6 = getelementptr inbounds nuw %struct.Abc_Ntk_t_, ptr %5, i32 0, i32 5
  %7 = load ptr, ptr %6, align 8, !tbaa !14
  %8 = getelementptr inbounds nuw %struct.Vec_Ptr_t_, ptr %7, i32 0, i32 2
  %9 = load ptr, ptr %8, align 8, !tbaa !28
  %10 = load ptr, ptr %2, align 8, !tbaa !3
  %11 = getelementptr inbounds nuw %struct.Abc_Obj_t_, ptr %10, i32 0, i32 4
  %12 = getelementptr inbounds nuw %struct.Vec_Int_t_, ptr %11, i32 0, i32 2
  %13 = load ptr, ptr %12, align 8, !tbaa !30
  %14 = getelementptr inbounds i32, ptr %13, i64 0
  %15 = load i32, ptr %14, align 4, !tbaa !31
  %16 = sext i32 %15 to i64
  %17 = getelementptr inbounds ptr, ptr %9, i64 %16
  %18 = load ptr, ptr %17, align 8, !tbaa !32
  ret ptr %18
}

; Function Attrs: inlinehint nounwind uwtable
define internal i32 @Vec_IntEntry(ptr noundef %0, i32 noundef %1) #2 {
  %3 = alloca ptr, align 8
  %4 = alloca i32, align 4
  store ptr %0, ptr %3, align 8, !tbaa !48
  store i32 %1, ptr %4, align 4, !tbaa !31
  %5 = load ptr, ptr %3, align 8, !tbaa !48
  %6 = getelementptr inbounds nuw %struct.Vec_Int_t_, ptr %5, i32 0, i32 2
  %7 = load ptr, ptr %6, align 8, !tbaa !52
  %8 = load i32, ptr %4, align 4, !tbaa !31
  %9 = sext i32 %8 to i64
  %10 = getelementptr inbounds i32, ptr %7, i64 %9
  %11 = load i32, ptr %10, align 4, !tbaa !31
  ret i32 %11
}

; Function Attrs: inlinehint nounwind uwtable
define internal i32 @Abc_ObjIsLatch(ptr noundef %0) #2 {
  %2 = alloca ptr, align 8
  store ptr %0, ptr %2, align 8, !tbaa !3
  %3 = load ptr, ptr %2, align 8, !tbaa !3
  %4 = getelementptr inbounds nuw %struct.Abc_Obj_t_, ptr %3, i32 0, i32 3
  %5 = load i32, ptr %4, align 4
  %6 = and i32 %5, 15
  %7 = icmp eq i32 %6, 8
  %8 = zext i1 %7 to i32
  ret i32 %8
}

; Function Attrs: inlinehint nounwind uwtable
define internal ptr @Abc_NtkBox(ptr noundef %0, i32 noundef %1) #2 {
  %3 = alloca ptr, align 8
  %4 = alloca i32, align 4
  store ptr %0, ptr %3, align 8, !tbaa !33
  store i32 %1, ptr %4, align 4, !tbaa !31
  %5 = load ptr, ptr %3, align 8, !tbaa !33
  %6 = getelementptr inbounds nuw %struct.Abc_Ntk_t_, ptr %5, i32 0, i32 11
  %7 = load ptr, ptr %6, align 8, !tbaa !34
  %8 = load i32, ptr %4, align 4, !tbaa !31
  %9 = call ptr @Vec_PtrEntry(ptr noundef %7, i32 noundef %8)
  ret ptr %9
}

; Function Attrs: inlinehint nounwind uwtable
define internal void @Vec_PtrWriteEntry(ptr noundef %0, i32 noundef %1, ptr noundef %2) #2 {
  %4 = alloca ptr, align 8
  %5 = alloca i32, align 4
  %6 = alloca ptr, align 8
  store ptr %0, ptr %4, align 8, !tbaa !37
  store i32 %1, ptr %5, align 4, !tbaa !31
  store ptr %2, ptr %6, align 8, !tbaa !32
  %7 = load ptr, ptr %6, align 8, !tbaa !32
  %8 = load ptr, ptr %4, align 8, !tbaa !37
  %9 = getelementptr inbounds nuw %struct.Vec_Ptr_t_, ptr %8, i32 0, i32 2
  %10 = load ptr, ptr %9, align 8, !tbaa !28
  %11 = load i32, ptr %5, align 4, !tbaa !31
  %12 = sext i32 %11 to i64
  %13 = getelementptr inbounds ptr, ptr %10, i64 %12
  store ptr %7, ptr %13, align 8, !tbaa !32
  ret void
}

; Function Attrs: inlinehint nounwind uwtable
define internal ptr @Vec_PtrEntry(ptr noundef %0, i32 noundef %1) #2 {
  %3 = alloca ptr, align 8
  %4 = alloca i32, align 4
  store ptr %0, ptr %3, align 8, !tbaa !37
  store i32 %1, ptr %4, align 4, !tbaa !31
  %5 = load ptr, ptr %3, align 8, !tbaa !37
  %6 = getelementptr inbounds nuw %struct.Vec_Ptr_t_, ptr %5, i32 0, i32 2
  %7 = load ptr, ptr %6, align 8, !tbaa !28
  %8 = load i32, ptr %4, align 4, !tbaa !31
  %9 = sext i32 %8 to i64
  %10 = getelementptr inbounds ptr, ptr %7, i64 %9
  %11 = load ptr, ptr %10, align 8, !tbaa !32
  ret ptr %11
}

; Function Attrs: inlinehint nounwind uwtable
define internal i32 @Vec_PtrSize(ptr noundef %0) #2 {
  %2 = alloca ptr, align 8
  store ptr %0, ptr %2, align 8, !tbaa !37
  %3 = load ptr, ptr %2, align 8, !tbaa !37
  %4 = getelementptr inbounds nuw %struct.Vec_Ptr_t_, ptr %3, i32 0, i32 1
  %5 = load i32, ptr %4, align 4, !tbaa !38
  ret i32 %5
}

; Function Attrs: inlinehint nounwind uwtable
define internal ptr @Abc_NtkPo(ptr noundef %0, i32 noundef %1) #2 {
  %3 = alloca ptr, align 8
  %4 = alloca i32, align 4
  store ptr %0, ptr %3, align 8, !tbaa !33
  store i32 %1, ptr %4, align 4, !tbaa !31
  %5 = load ptr, ptr %3, align 8, !tbaa !33
  %6 = getelementptr inbounds nuw %struct.Abc_Ntk_t_, ptr %5, i32 0, i32 7
  %7 = load ptr, ptr %6, align 8, !tbaa !83
  %8 = load i32, ptr %4, align 4, !tbaa !31
  %9 = call ptr @Vec_PtrEntry(ptr noundef %7, i32 noundef %8)
  ret ptr %9
}

; Function Attrs: inlinehint nounwind uwtable
define internal i32 @Abc_NtkPoNum(ptr noundef %0) #2 {
  %2 = alloca ptr, align 8
  store ptr %0, ptr %2, align 8, !tbaa !33
  %3 = load ptr, ptr %2, align 8, !tbaa !33
  %4 = getelementptr inbounds nuw %struct.Abc_Ntk_t_, ptr %3, i32 0, i32 7
  %5 = load ptr, ptr %4, align 8, !tbaa !83
  %6 = call i32 @Vec_PtrSize(ptr noundef %5)
  ret i32 %6
}

; Function Attrs: nounwind uwtable
define void @Abc_NtkTransformBack(ptr noundef %0, ptr noundef %1, ptr noundef %2, ptr noundef %3) #0 {
  %5 = alloca ptr, align 8
  %6 = alloca ptr, align 8
  %7 = alloca ptr, align 8
  %8 = alloca ptr, align 8
  %9 = alloca ptr, align 8
  %10 = alloca ptr, align 8
  %11 = alloca ptr, align 8
  %12 = alloca ptr, align 8
  %13 = alloca i32, align 4
  %14 = alloca i32, align 4
  store ptr %0, ptr %5, align 8, !tbaa !33
  store ptr %1, ptr %6, align 8, !tbaa !33
  store ptr %2, ptr %7, align 8, !tbaa !37
  store ptr %3, ptr %8, align 8, !tbaa !48
  call void @llvm.lifetime.start.p0(i64 8, ptr %9) #7
  call void @llvm.lifetime.start.p0(i64 8, ptr %10) #7
  call void @llvm.lifetime.start.p0(i64 8, ptr %11) #7
  call void @llvm.lifetime.start.p0(i64 8, ptr %12) #7
  call void @llvm.lifetime.start.p0(i64 4, ptr %13) #7
  call void @llvm.lifetime.start.p0(i64 4, ptr %14) #7
  store i32 0, ptr %13, align 4, !tbaa !31
  br label %15

15:                                               ; preds = %32, %4
  %16 = load i32, ptr %13, align 4, !tbaa !31
  %17 = load ptr, ptr %5, align 8, !tbaa !33
  %18 = call i32 @Abc_NtkPoNum(ptr noundef %17)
  %19 = icmp slt i32 %16, %18
  br i1 %19, label %20, label %24

20:                                               ; preds = %15
  %21 = load ptr, ptr %5, align 8, !tbaa !33
  %22 = load i32, ptr %13, align 4, !tbaa !31
  %23 = call ptr @Abc_NtkPo(ptr noundef %21, i32 noundef %22)
  store ptr %23, ptr %9, align 8, !tbaa !3
  br label %24

24:                                               ; preds = %20, %15
  %25 = phi i1 [ false, %15 ], [ true, %20 ]
  br i1 %25, label %26, label %35

26:                                               ; preds = %24
  %27 = load ptr, ptr %6, align 8, !tbaa !33
  %28 = load i32, ptr %13, align 4, !tbaa !31
  %29 = call ptr @Abc_NtkPo(ptr noundef %27, i32 noundef %28)
  %30 = load ptr, ptr %9, align 8, !tbaa !3
  %31 = getelementptr inbounds nuw %struct.Abc_Obj_t_, ptr %30, i32 0, i32 7
  store ptr %29, ptr %31, align 8, !tbaa !47
  br label %32

32:                                               ; preds = %26
  %33 = load i32, ptr %13, align 4, !tbaa !31
  %34 = add nsw i32 %33, 1
  store i32 %34, ptr %13, align 4, !tbaa !31
  br label %15, !llvm.loop !104

35:                                               ; preds = %24
  store i32 0, ptr %13, align 4, !tbaa !31
  br label %36

36:                                               ; preds = %53, %35
  %37 = load i32, ptr %13, align 4, !tbaa !31
  %38 = load ptr, ptr %7, align 8, !tbaa !37
  %39 = call i32 @Vec_PtrSize(ptr noundef %38)
  %40 = icmp slt i32 %37, %39
  br i1 %40, label %41, label %45

41:                                               ; preds = %36
  %42 = load ptr, ptr %7, align 8, !tbaa !37
  %43 = load i32, ptr %13, align 4, !tbaa !31
  %44 = call ptr @Vec_PtrEntry(ptr noundef %42, i32 noundef %43)
  store ptr %44, ptr %9, align 8, !tbaa !3
  br label %45

45:                                               ; preds = %41, %36
  %46 = phi i1 [ false, %36 ], [ true, %41 ]
  br i1 %46, label %47, label %56

47:                                               ; preds = %45
  %48 = load ptr, ptr %7, align 8, !tbaa !37
  %49 = load i32, ptr %13, align 4, !tbaa !31
  %50 = load ptr, ptr %9, align 8, !tbaa !3
  %51 = getelementptr inbounds nuw %struct.Abc_Obj_t_, ptr %50, i32 0, i32 7
  %52 = load ptr, ptr %51, align 8, !tbaa !47
  call void @Vec_PtrWriteEntry(ptr noundef %48, i32 noundef %49, ptr noundef %52)
  br label %53

53:                                               ; preds = %47
  %54 = load i32, ptr %13, align 4, !tbaa !31
  %55 = add nsw i32 %54, 1
  store i32 %55, ptr %13, align 4, !tbaa !31
  br label %36, !llvm.loop !105

56:                                               ; preds = %45
  store i32 0, ptr %13, align 4, !tbaa !31
  br label %57

57:                                               ; preds = %110, %56
  %58 = load i32, ptr %13, align 4, !tbaa !31
  %59 = load ptr, ptr %6, align 8, !tbaa !33
  %60 = getelementptr inbounds nuw %struct.Abc_Ntk_t_, ptr %59, i32 0, i32 11
  %61 = load ptr, ptr %60, align 8, !tbaa !34
  %62 = call i32 @Vec_PtrSize(ptr noundef %61)
  %63 = icmp slt i32 %58, %62
  br i1 %63, label %64, label %68

64:                                               ; preds = %57
  %65 = load ptr, ptr %6, align 8, !tbaa !33
  %66 = load i32, ptr %13, align 4, !tbaa !31
  %67 = call ptr @Abc_NtkBox(ptr noundef %65, i32 noundef %66)
  store ptr %67, ptr %9, align 8, !tbaa !3
  br label %68

68:                                               ; preds = %64, %57
  %69 = phi i1 [ false, %57 ], [ true, %64 ]
  br i1 %69, label %70, label %113

70:                                               ; preds = %68
  %71 = load ptr, ptr %9, align 8, !tbaa !3
  %72 = call i32 @Abc_ObjIsLatch(ptr noundef %71)
  %73 = icmp ne i32 %72, 0
  br i1 %73, label %75, label %74

74:                                               ; preds = %70
  br label %109

75:                                               ; preds = %70
  %76 = load ptr, ptr %8, align 8, !tbaa !48
  %77 = load i32, ptr %13, align 4, !tbaa !31
  %78 = call i32 @Vec_IntEntry(ptr noundef %76, i32 noundef %77)
  store i32 %78, ptr %14, align 4, !tbaa !31
  %79 = load i32, ptr %14, align 4, !tbaa !31
  %80 = icmp eq i32 %79, -1
  br i1 %80, label %81, label %82

81:                                               ; preds = %75
  br label %110

82:                                               ; preds = %75
  %83 = load ptr, ptr %9, align 8, !tbaa !3
  %84 = call ptr @Abc_ObjFanin0(ptr noundef %83)
  %85 = call ptr @Abc_ObjFanin0(ptr noundef %84)
  store ptr %85, ptr %12, align 8, !tbaa !3
  %86 = load ptr, ptr %7, align 8, !tbaa !37
  %87 = load i32, ptr %14, align 4, !tbaa !31
  %88 = call ptr @Vec_PtrEntry(ptr noundef %86, i32 noundef %87)
  store ptr %88, ptr %11, align 8, !tbaa !3
  %89 = load ptr, ptr %11, align 8, !tbaa !3
  %90 = call ptr @Abc_ObjFanin0(ptr noundef %89)
  store ptr %90, ptr %11, align 8, !tbaa !3
  %91 = load ptr, ptr %6, align 8, !tbaa !33
  %92 = call ptr @Abc_NtkCreateNode(ptr noundef %91)
  store ptr %92, ptr %10, align 8, !tbaa !3
  %93 = load ptr, ptr %10, align 8, !tbaa !3
  %94 = load ptr, ptr %11, align 8, !tbaa !3
  call void @Abc_ObjAddFanin(ptr noundef %93, ptr noundef %94)
  %95 = load ptr, ptr %10, align 8, !tbaa !3
  %96 = load ptr, ptr %12, align 8, !tbaa !3
  call void @Abc_ObjAddFanin(ptr noundef %95, ptr noundef %96)
  %97 = load ptr, ptr %10, align 8, !tbaa !3
  %98 = load ptr, ptr %9, align 8, !tbaa !3
  %99 = call ptr @Abc_ObjFanout0(ptr noundef %98)
  call void @Abc_ObjAddFanin(ptr noundef %97, ptr noundef %99)
  %100 = load ptr, ptr %10, align 8, !tbaa !3
  %101 = load ptr, ptr %6, align 8, !tbaa !33
  %102 = getelementptr inbounds nuw %struct.Abc_Ntk_t_, ptr %101, i32 0, i32 30
  %103 = load ptr, ptr %102, align 8, !tbaa !56
  %104 = call ptr @Abc_SopRegister(ptr noundef %103, ptr noundef @.str.9)
  call void @Abc_ObjSetData(ptr noundef %100, ptr noundef %104)
  %105 = load ptr, ptr %9, align 8, !tbaa !3
  %106 = call ptr @Abc_ObjFanin0(ptr noundef %105)
  %107 = load ptr, ptr %12, align 8, !tbaa !3
  %108 = load ptr, ptr %10, align 8, !tbaa !3
  call void @Abc_ObjPatchFanin(ptr noundef %106, ptr noundef %107, ptr noundef %108)
  br label %109

109:                                              ; preds = %82, %74
  br label %110

110:                                              ; preds = %109, %81
  %111 = load i32, ptr %13, align 4, !tbaa !31
  %112 = add nsw i32 %111, 1
  store i32 %112, ptr %13, align 4, !tbaa !31
  br label %57, !llvm.loop !106

113:                                              ; preds = %68
  store i32 0, ptr %13, align 4, !tbaa !31
  br label %114

114:                                              ; preds = %127, %113
  %115 = load i32, ptr %13, align 4, !tbaa !31
  %116 = load ptr, ptr %7, align 8, !tbaa !37
  %117 = call i32 @Vec_PtrSize(ptr noundef %116)
  %118 = icmp slt i32 %115, %117
  br i1 %118, label %119, label %123

119:                                              ; preds = %114
  %120 = load ptr, ptr %7, align 8, !tbaa !37
  %121 = load i32, ptr %13, align 4, !tbaa !31
  %122 = call ptr @Vec_PtrEntry(ptr noundef %120, i32 noundef %121)
  store ptr %122, ptr %9, align 8, !tbaa !3
  br label %123

123:                                              ; preds = %119, %114
  %124 = phi i1 [ false, %114 ], [ true, %119 ]
  br i1 %124, label %125, label %130

125:                                              ; preds = %123
  %126 = load ptr, ptr %9, align 8, !tbaa !3
  call void @Abc_NtkDeleteObj(ptr noundef %126)
  br label %127

127:                                              ; preds = %125
  %128 = load i32, ptr %13, align 4, !tbaa !31
  %129 = add nsw i32 %128, 1
  store i32 %129, ptr %13, align 4, !tbaa !31
  br label %114, !llvm.loop !107

130:                                              ; preds = %123
  call void @llvm.lifetime.end.p0(i64 4, ptr %14) #7
  call void @llvm.lifetime.end.p0(i64 4, ptr %13) #7
  call void @llvm.lifetime.end.p0(i64 8, ptr %12) #7
  call void @llvm.lifetime.end.p0(i64 8, ptr %11) #7
  call void @llvm.lifetime.end.p0(i64 8, ptr %10) #7
  call void @llvm.lifetime.end.p0(i64 8, ptr %9) #7
  ret void
}