; Function Attrs: nounwind uwtable
define void @Abc_NtkTransformBack(ptr noundef readonly captures(none) %0, ptr noundef %1, ptr noundef readonly captures(none) %2, ptr noundef readonly captures(none) %3) local_unnamed_addr #2 {
  %5 = getelementptr i8, ptr %0, i64 48
  %.val7175 = load ptr, ptr %5, align 8, !tbaa !71
  %6 = getelementptr i8, ptr %.val7175, i64 4
  %.val71.val76 = load i32, ptr %6, align 4, !tbaa !33
  %7 = icmp sgt i32 %.val71.val76, 0
  br i1 %7, label %.lr.ph, label %.critedge.preheader

.lr.ph:                                           ; preds = %4
  %8 = getelementptr i8, ptr %1, i64 48
  br label %12

.critedge.preheader:                              ; preds = %12, %4
  %9 = getelementptr i8, ptr %2, i64 4
  %.val63 = load i32, ptr %9, align 4, !tbaa !33
  %10 = icmp sgt i32 %.val63, 0
  br i1 %10, label %.lr.ph80, label %.critedge2.preheader

.lr.ph80:                                         ; preds = %.critedge.preheader
  %11 = getelementptr i8, ptr %2, i64 8
  %wide.trip.count = zext nneg i32 %.val63 to i64
  br label %.critedge

12:                                               ; preds = %.lr.ph, %12
  %indvars.iv = phi i64 [ 0, %.lr.ph ], [ %indvars.iv.next, %12 ]
  %.val7178 = phi ptr [ %.val7175, %.lr.ph ], [ %.val71, %12 ]
  %13 = getelementptr i8, ptr %.val7178, i64 8
  %.val73.val = load ptr, ptr %13, align 8, !tbaa !29
  %14 = getelementptr inbounds nuw ptr, ptr %.val73.val, i64 %indvars.iv
  %15 = load ptr, ptr %14, align 8, !tbaa !31
  %.val72 = load ptr, ptr %8, align 8, !tbaa !71
  %16 = getelementptr i8, ptr %.val72, i64 8
  %.val72.val = load ptr, ptr %16, align 8, !tbaa !29
  %17 = getelementptr inbounds nuw ptr, ptr %.val72.val, i64 %indvars.iv
  %18 = load ptr, ptr %17, align 8, !tbaa !31
  %19 = getelementptr inbounds nuw i8, ptr %15, i64 64
  store ptr %18, ptr %19, align 8, !tbaa !42
  %indvars.iv.next = add nuw nsw i64 %indvars.iv, 1
  %.val71 = load ptr, ptr %5, align 8, !tbaa !71
  %20 = getelementptr i8, ptr %.val71, i64 4
  %.val71.val = load i32, ptr %20, align 4, !tbaa !33
  %21 = sext i32 %.val71.val to i64
  %22 = icmp slt i64 %indvars.iv.next, %21
  br i1 %22, label %12, label %.critedge.preheader, !llvm.loop !94

.critedge2.preheader:                             ; preds = %.critedge, %.critedge.preheader
  %23 = getelementptr inbounds nuw i8, ptr %1, i64 80
  %24 = load ptr, ptr %23, align 8, !tbaa !32
  %25 = getelementptr i8, ptr %24, i64 4
  %.val6281 = load i32, ptr %25, align 4, !tbaa !33
  %26 = icmp sgt i32 %.val6281, 0
  br i1 %26, label %.lr.ph83, label %.critedge4.preheader

.lr.ph83:                                         ; preds = %.critedge2.preheader
  %27 = getelementptr i8, ptr %3, i64 8
  %28 = getelementptr i8, ptr %2, i64 8
  %29 = getelementptr inbounds nuw i8, ptr %1, i64 256
  br label %36

.critedge:                                        ; preds = %.lr.ph80, %.critedge
  %indvars.iv88 = phi i64 [ 0, %.lr.ph80 ], [ %indvars.iv.next89, %.critedge ]
  %.val66 = load ptr, ptr %11, align 8, !tbaa !29
  %30 = getelementptr inbounds nuw ptr, ptr %.val66, i64 %indvars.iv88
  %31 = load ptr, ptr %30, align 8, !tbaa !31
  %32 = getelementptr inbounds nuw i8, ptr %31, i64 64
  %33 = load ptr, ptr %32, align 8, !tbaa !42
  store ptr %33, ptr %30, align 8, !tbaa !31
  %indvars.iv.next89 = add nuw nsw i64 %indvars.iv88, 1
  %exitcond.not = icmp eq i64 %indvars.iv.next89, %wide.trip.count
  br i1 %exitcond.not, label %.critedge2.preheader, label %.critedge, !llvm.loop !95

.critedge4.preheader.loopexit:                    ; preds = %.critedge2
  %.val6184.pre = load i32, ptr %9, align 4, !tbaa !33
  br label %.critedge4.preheader

.critedge4.preheader:                             ; preds = %.critedge4.preheader.loopexit, %.critedge2.preheader
  %.val6184 = phi i32 [ %.val6184.pre, %.critedge4.preheader.loopexit ], [ %.val63, %.critedge2.preheader ]
  %34 = icmp sgt i32 %.val6184, 0
  br i1 %34, label %.lr.ph86, label %.critedge6

.lr.ph86:                                         ; preds = %.critedge4.preheader
  %35 = getelementptr i8, ptr %2, i64 8
  br label %.critedge4

36:                                               ; preds = %.lr.ph83, %.critedge2
  %37 = phi ptr [ %24, %.lr.ph83 ], [ %84, %.critedge2 ]
  %indvars.iv91 = phi i64 [ 0, %.lr.ph83 ], [ %indvars.iv.next92, %.critedge2 ]
  %38 = getelementptr i8, ptr %37, i64 8
  %.val67.val = load ptr, ptr %38, align 8, !tbaa !29
  %39 = getelementptr inbounds nuw ptr, ptr %.val67.val, i64 %indvars.iv91
  %40 = load ptr, ptr %39, align 8, !tbaa !31
  %41 = getelementptr i8, ptr %40, i64 20
  %.val60 = load i32, ptr %41, align 4
  %42 = and i32 %.val60, 15
  %.not = icmp eq i32 %42, 8
  br i1 %.not, label %43, label %.critedge2

43:                                               ; preds = %36
  %.val68 = load ptr, ptr %27, align 8, !tbaa !46
  %44 = getelementptr inbounds nuw i32, ptr %.val68, i64 %indvars.iv91
  %45 = load i32, ptr %44, align 4, !tbaa !28
  %46 = icmp eq i32 %45, -1
  br i1 %46, label %.critedge2, label %47

47:                                               ; preds = %43
  %.val58 = load ptr, ptr %40, align 8, !tbaa !3
  %48 = getelementptr i8, ptr %40, i64 32
  %.val59 = load ptr, ptr %48, align 8, !tbaa !13
  %49 = getelementptr i8, ptr %.val58, i64 32
  %.val58.val = load ptr, ptr %49, align 8, !tbaa !14
  %.val59.val = load i32, ptr %.val59, align 4, !tbaa !28
  %50 = getelementptr i8, ptr %.val58.val, i64 8
  %.val58.val.val = load ptr, ptr %50, align 8, !tbaa !29
  %51 = sext i32 %.val59.val to i64
  %52 = getelementptr inbounds ptr, ptr %.val58.val.val, i64 %51
  %53 = load ptr, ptr %52, align 8, !tbaa !31
  %.val56 = load ptr, ptr %53, align 8, !tbaa !3
  %54 = getelementptr i8, ptr %53, i64 32
  %.val57 = load ptr, ptr %54, align 8, !tbaa !13
  %55 = getelementptr i8, ptr %.val56, i64 32
  %.val56.val = load ptr, ptr %55, align 8, !tbaa !14
  %.val57.val = load i32, ptr %.val57, align 4, !tbaa !28
  %56 = getelementptr i8, ptr %.val56.val, i64 8
  %.val56.val.val = load ptr, ptr %56, align 8, !tbaa !29
  %57 = sext i32 %.val57.val to i64
  %58 = getelementptr inbounds ptr, ptr %.val56.val.val, i64 %57
  %59 = load ptr, ptr %58, align 8, !tbaa !31
  %.val65 = load ptr, ptr %28, align 8, !tbaa !29
  %60 = sext i32 %45 to i64
  %61 = getelementptr inbounds ptr, ptr %.val65, i64 %60
  %62 = load ptr, ptr %61, align 8, !tbaa !31
  %.val54 = load ptr, ptr %62, align 8, !tbaa !3
  %63 = getelementptr i8, ptr %62, i64 32
  %.val55 = load ptr, ptr %63, align 8, !tbaa !13
  %64 = getelementptr i8, ptr %.val54, i64 32
  %.val54.val = load ptr, ptr %64, align 8, !tbaa !14
  %.val55.val = load i32, ptr %.val55, align 4, !tbaa !28
  %65 = getelementptr i8, ptr %.val54.val, i64 8
  %.val54.val.val = load ptr, ptr %65, align 8, !tbaa !29
  %66 = sext i32 %.val55.val to i64
  %67 = getelementptr inbounds ptr, ptr %.val54.val.val, i64 %66
  %68 = load ptr, ptr %67, align 8, !tbaa !31
  %69 = tail call ptr @Abc_NtkCreateObj(ptr noundef nonnull %1, i32 noundef 7) #12
  tail call void @Abc_ObjAddFanin(ptr noundef %69, ptr noundef %68) #12
  tail call void @Abc_ObjAddFanin(ptr noundef %69, ptr noundef %59) #12
  %.val69 = load ptr, ptr %40, align 8, !tbaa !3
  %70 = getelementptr i8, ptr %40, i64 48
  %.val70 = load ptr, ptr %70, align 8, !tbaa !53
  %71 = getelementptr i8, ptr %.val69, i64 32
  %.val69.val = load ptr, ptr %71, align 8, !tbaa !14
  %.val70.val = load i32, ptr %.val70, align 4, !tbaa !28
  %72 = getelementptr i8, ptr %.val69.val, i64 8
  %.val69.val.val = load ptr, ptr %72, align 8, !tbaa !29
  %73 = sext i32 %.val70.val to i64
  %74 = getelementptr inbounds ptr, ptr %.val69.val.val, i64 %73
  %75 = load ptr, ptr %74, align 8, !tbaa !31
  tail call void @Abc_ObjAddFanin(ptr noundef %69, ptr noundef %75) #12
  %76 = load ptr, ptr %29, align 8, !tbaa !51
  %77 = tail call ptr @Abc_SopRegister(ptr noundef %76, ptr noundef nonnull @.str.9) #12
  %78 = getelementptr inbounds nuw i8, ptr %69, i64 56
  store ptr %77, ptr %78, align 8, !tbaa !42
  %.val = load ptr, ptr %40, align 8, !tbaa !3
  %.val53 = load ptr, ptr %48, align 8, !tbaa !13
  %79 = getelementptr i8, ptr %.val, i64 32
  %.val.val = load ptr, ptr %79, align 8, !tbaa !14
  %.val53.val = load i32, ptr %.val53, align 4, !tbaa !28
  %80 = getelementptr i8, ptr %.val.val, i64 8
  %.val.val.val = load ptr, ptr %80, align 8, !tbaa !29
  %81 = sext i32 %.val53.val to i64
  %82 = getelementptr inbounds ptr, ptr %.val.val.val, i64 %81
  %83 = load ptr, ptr %82, align 8, !tbaa !31
  tail call void @Abc_ObjPatchFanin(ptr noundef %83, ptr noundef %59, ptr noundef %69) #12
  %.pre = load ptr, ptr %23, align 8, !tbaa !32
  br label %.critedge2

.critedge2:                                       ; preds = %47, %36, %43
  %84 = phi ptr [ %.pre, %47 ], [ %37, %36 ], [ %37, %43 ]
  %indvars.iv.next92 = add nuw nsw i64 %indvars.iv91, 1
  %85 = getelementptr i8, ptr %84, i64 4
  %.val62 = load i32, ptr %85, align 4, !tbaa !33
  %86 = sext i32 %.val62 to i64
  %87 = icmp slt i64 %indvars.iv.next92, %86
  br i1 %87, label %36, label %.critedge4.preheader.loopexit, !llvm.loop !96

.critedge4:                                       ; preds = %.lr.ph86, %.critedge4
  %indvars.iv94 = phi i64 [ 0, %.lr.ph86 ], [ %indvars.iv.next95, %.critedge4 ]
  %.val64 = load ptr, ptr %35, align 8, !tbaa !29
  %88 = getelementptr inbounds nuw ptr, ptr %.val64, i64 %indvars.iv94
  %89 = load ptr, ptr %88, align 8, !tbaa !31
  tail call void @Abc_NtkDeleteObj(ptr noundef %89) #12
  %indvars.iv.next95 = add nuw nsw i64 %indvars.iv94, 1
  %.val61 = load i32, ptr %9, align 4, !tbaa !33
  %90 = sext i32 %.val61 to i64
  %91 = icmp slt i64 %indvars.iv.next95, %90
  br i1 %91, label %.critedge4, label %.critedge6, !llvm.loop !97

.critedge6:                                       ; preds = %.critedge4, %.critedge4.preheader
  ret void
}